target datalayout = "e-m:e-p270:32:32-p271:32:32-p272:64:64-i64:64-i128:128-f80:128-n8:16:32:64-S128"
target triple = "x86_64-pc-linux-gnu"

%struct.PJconsts = type { ptr, ptr, ptr, ptr, ptr, ptr, ptr, ptr, ptr, ptr, ptr, ptr, i32, ptr, ptr, ptr, ptr, ptr, ptr, ptr, ptr, double, double, double, double, double, double, double, double, double, double, double, double, double, double, double, double, double, double, double, double, double, double, i32, i32, i32, i32, i32, i32, i32, i32, i32, i32, i32, ptr, ptr, ptr, ptr, ptr, ptr, double, double, double, double, double, double, double, double, double, double, double, i32, [7 x double], i32, ptr, ptr, double, double, i32, [4 x i8], %"class.std::shared_ptr", i8, double, i8, %"class.std::__cxx11::basic_string", %"class.std::__cxx11::basic_string", %"class.std::__cxx11::basic_string", i8, %"class.std::vector", i32, %"class.std::vector.3", i32, i8, i8, i8, ptr }
%"class.std::shared_ptr" = type { %"class.std::__shared_ptr" }
%"class.std::__shared_ptr" = type { ptr, %"class.std::__shared_count" }
%"class.std::__shared_count" = type { ptr }
%"class.std::__cxx11::basic_string" = type { %"struct.std::__cxx11::basic_string<char>::_Alloc_hider", i64, %union.anon }
%"struct.std::__cxx11::basic_string<char>::_Alloc_hider" = type { ptr }
%union.anon = type { i64, [8 x i8] }
%"class.std::vector" = type { %"struct.std::_Vector_base" }
%"struct.std::_Vector_base" = type { %"struct.std::_Vector_base<osgeo::proj::operation::GridDescription, std::allocator<osgeo::proj::operation::GridDescription>>::_Vector_impl" }
%"struct.std::_Vector_base<osgeo::proj::operation::GridDescription, std::allocator<osgeo::proj::operation::GridDescription>>::_Vector_impl" = type { %"struct.std::_Vector_base<osgeo::proj::operation::GridDescription, std::allocator<osgeo::proj::operation::GridDescription>>::_Vector_impl_data" }
%"struct.std::_Vector_base<osgeo::proj::operation::GridDescription, std::allocator<osgeo::proj::operation::GridDescription>>::_Vector_impl_data" = type { ptr, ptr, ptr }
%"class.std::vector.3" = type { %"struct.std::_Vector_base.4" }
%"struct.std::_Vector_base.4" = type { %"struct.std::_Vector_base<PJCoordOperation, std::allocator<PJCoordOperation>>::_Vector_impl" }
%"struct.std::_Vector_base<PJCoordOperation, std::allocator<PJCoordOperation>>::_Vector_impl" = type { %"struct.std::_Vector_base<PJCoordOperation, std::allocator<PJCoordOperation>>::_Vector_impl_data" }
%"struct.std::_Vector_base<PJCoordOperation, std::allocator<PJCoordOperation>>::_Vector_impl_data" = type { ptr, ptr, ptr }
%"struct.(anonymous namespace)::pj_sch_data" = type { double, double, double, double, [9 x double], [3 x double], double, ptr, ptr }
%struct.PJ_LPZ = type { double, double, double }
%struct.PJ_XYZ = type { double, double, double }

; Function Attrs: mustprogress uwtable
define internal void @_ZL13sch_inverse3d6PJ_XYZP8PJconsts(ptr dead_on_unwind noalias writable sret(%struct.PJ_LPZ) align 8 %0, ptr noundef byval(%struct.PJ_XYZ) align 8 %1, ptr noundef %2) #0 {
  %4 = alloca ptr, align 8
  %5 = alloca ptr, align 8
  %6 = alloca %struct.PJ_LPZ, align 8
  %7 = alloca %struct.PJ_XYZ, align 8
  %8 = alloca %struct.PJ_LPZ, align 8
  %9 = alloca %struct.PJ_XYZ, align 8
  %10 = alloca %struct.PJ_XYZ, align 8
  store ptr %2, ptr %4, align 8, !tbaa !3
  call void @llvm.lifetime.start.p0(i64 8, ptr %5) #8
  %11 = load ptr, ptr %4, align 8, !tbaa !3
  %12 = getelementptr inbounds nuw %struct.PJconsts, ptr %11, i32 0, i32 11
  %13 = load ptr, ptr %12, align 8, !tbaa !43
  store ptr %13, ptr %5, align 8, !tbaa !41
  call void @llvm.lifetime.start.p0(i64 24, ptr %6) #8
  %14 = getelementptr inbounds nuw %struct.PJ_XYZ, ptr %1, i32 0, i32 0
  %15 = load double, ptr %14, align 8, !tbaa !66
  %16 = load ptr, ptr %4, align 8, !tbaa !3
  %17 = getelementptr inbounds nuw %struct.PJconsts, ptr %16, i32 0, i32 21
  %18 = load double, ptr %17, align 8, !tbaa !58
  %19 = load ptr, ptr %5, align 8, !tbaa !41
  %20 = getelementptr inbounds nuw %"struct.(anonymous namespace)::pj_sch_data", ptr %19, i32 0, i32 6
  %21 = load double, ptr %20, align 8, !tbaa !59
  %22 = fdiv double %18, %21
  %23 = fmul double %15, %22
  %24 = getelementptr inbounds nuw %struct.PJ_LPZ, ptr %6, i32 0, i32 0
  store double %23, ptr %24, align 8, !tbaa !60
  %25 = getelementptr inbounds nuw %struct.PJ_XYZ, ptr %1, i32 0, i32 1
  %26 = load double, ptr %25, align 8, !tbaa !68
  %27 = load ptr, ptr %4, align 8, !tbaa !3
  %28 = getelementptr inbounds nuw %struct.PJconsts, ptr %27, i32 0, i32 21
  %29 = load double, ptr %28, align 8, !tbaa !58
  %30 = load ptr, ptr %5, align 8, !tbaa !41
  %31 = getelementptr inbounds nuw %"struct.(anonymous namespace)::pj_sch_data", ptr %30, i32 0, i32 6
  %32 = load double, ptr %31, align 8, !tbaa !59
  %33 = fdiv double %29, %32
  %34 = fmul double %26, %33
  %35 = getelementptr inbounds nuw %struct.PJ_LPZ, ptr %6, i32 0, i32 1
  store double %34, ptr %35, align 8, !tbaa !62
  %36 = getelementptr inbounds nuw %struct.PJ_XYZ, ptr %1, i32 0, i32 2
  %37 = load double, ptr %36, align 8, !tbaa !69
  %38 = getelementptr inbounds nuw %struct.PJ_LPZ, ptr %6, i32 0, i32 2
  store double %37, ptr %38, align 8, !tbaa !63
  call void @llvm.lifetime.start.p0(i64 24, ptr %7) #8
  %39 = load ptr, ptr %5, align 8, !tbaa !41
  %40 = getelementptr inbounds nuw %"struct.(anonymous namespace)::pj_sch_data", ptr %39, i32 0, i32 8
  %41 = load ptr, ptr %40, align 8, !tbaa !55
  %42 = getelementptr inbounds nuw %struct.PJconsts, ptr %41, i32 0, i32 15
  %43 = load ptr, ptr %42, align 8, !tbaa !64
  call void @llvm.memcpy.p0.p0.i64(ptr align 8 %8, ptr align 8 %6, i64 24, i1 false), !tbaa.struct !65
  %44 = load ptr, ptr %5, align 8, !tbaa !41
  %45 = getelementptr inbounds nuw %"struct.(anonymous namespace)::pj_sch_data", ptr %44, i32 0, i32 8
  %46 = load ptr, ptr %45, align 8, !tbaa !55
  call void %43(ptr dead_on_unwind writable sret(%struct.PJ_XYZ) align 8 %7, ptr noundef byval(%struct.PJ_LPZ) align 8 %8, ptr noundef %46)
  call void @llvm.memcpy.p0.p0.i64(ptr align 8 %1, ptr align 8 %7, i64 24, i1 false), !tbaa.struct !65
  call void @llvm.lifetime.end.p0(i64 24, ptr %7) #8
  call void @llvm.lifetime.start.p0(i64 24, ptr %9) #8
  %47 = getelementptr inbounds nuw %struct.PJ_XYZ, ptr %9, i32 0, i32 0
  %48 = load ptr, ptr %5, align 8, !tbaa !41
  %49 = getelementptr inbounds nuw %"struct.(anonymous namespace)::pj_sch_data", ptr %48, i32 0, i32 4
  %50 = getelementptr inbounds [9 x double], ptr %49, i64 0, i64 0
  %51 = load double, ptr %50, align 8, !tbaa !56
  %52 = getelementptr inbounds nuw %struct.PJ_XYZ, ptr %1, i32 0, i32 0
  %53 = load double, ptr %52, align 8, !tbaa !66
  %54 = load ptr, ptr %5, align 8, !tbaa !41
  %55 = getelementptr inbounds nuw %"struct.(anonymous namespace)::pj_sch_data", ptr %54, i32 0, i32 4
  %56 = getelementptr inbounds [9 x double], ptr %55, i64 0, i64 1
  %57 = load double, ptr %56, align 8, !tbaa !56
  %58 = getelementptr inbounds nuw %struct.PJ_XYZ, ptr %1, i32 0, i32 1
  %59 = load double, ptr %58, align 8, !tbaa !68
  %60 = fmul double %57, %59
  %61 = call double @llvm.fmuladd.f64(double %51, double %53, double %60)
  %62 = load ptr, ptr %5, align 8, !tbaa !41
  %63 = getelementptr inbounds nuw %"struct.(anonymous namespace)::pj_sch_data", ptr %62, i32 0, i32 4
  %64 = getelementptr inbounds [9 x double], ptr %63, i64 0, i64 2
  %65 = load double, ptr %64, align 8, !tbaa !56
  %66 = getelementptr inbounds nuw %struct.PJ_XYZ, ptr %1, i32 0, i32 2
  %67 = load double, ptr %66, align 8, !tbaa !69
  %68 = call double @llvm.fmuladd.f64(double %65, double %67, double %61)
  store double %68, ptr %47, align 8, !tbaa !66
  %69 = getelementptr inbounds nuw %struct.PJ_XYZ, ptr %9, i32 0, i32 1
  %70 = load ptr, ptr %5, align 8, !tbaa !41
  %71 = getelementptr inbounds nuw %"struct.(anonymous namespace)::pj_sch_data", ptr %70, i32 0, i32 4
  %72 = getelementptr inbounds [9 x double], ptr %71, i64 0, i64 3
  %73 = load double, ptr %72, align 8, !tbaa !56
  %74 = getelementptr inbounds nuw %struct.PJ_XYZ, ptr %1, i32 0, i32 0
  %75 = load double, ptr %74, align 8, !tbaa !66
  %76 = load ptr, ptr %5, align 8, !tbaa !41
  %77 = getelementptr inbounds nuw %"struct.(anonymous namespace)::pj_sch_data", ptr %76, i32 0, i32 4
  %78 = getelementptr inbounds [9 x double], ptr %77, i64 0, i64 4
  %79 = load double, ptr %78, align 8, !tbaa !56
  %80 = getelementptr inbounds nuw %struct.PJ_XYZ, ptr %1, i32 0, i32 1
  %81 = load double, ptr %80, align 8, !tbaa !68
  %82 = fmul double %79, %81
  %83 = call double @llvm.fmuladd.f64(double %73, double %75, double %82)
  %84 = load ptr, ptr %5, align 8, !tbaa !41
  %85 = getelementptr inbounds nuw %"struct.(anonymous namespace)::pj_sch_data", ptr %84, i32 0, i32 4
  %86 = getelementptr inbounds [9 x double], ptr %85, i64 0, i64 5
  %87 = load double, ptr %86, align 8, !tbaa !56
  %88 = getelementptr inbounds nuw %struct.PJ_XYZ, ptr %1, i32 0, i32 2
  %89 = load double, ptr %88, align 8, !tbaa !69
  %90 = call double @llvm.fmuladd.f64(double %87, double %89, double %83)
  store double %90, ptr %69, align 8, !tbaa !68
  %91 = getelementptr inbounds nuw %struct.PJ_XYZ, ptr %9, i32 0, i32 2
  %92 = load ptr, ptr %5, align 8, !tbaa !41
  %93 = getelementptr inbounds nuw %"struct.(anonymous namespace)::pj_sch_data", ptr %92, i32 0, i32 4
  %94 = getelementptr inbounds [9 x double], ptr %93, i64 0, i64 6
  %95 = load double, ptr %94, align 8, !tbaa !56
  %96 = getelementptr inbounds nuw %struct.PJ_XYZ, ptr %1, i32 0, i32 0
  %97 = load double, ptr %96, align 8, !tbaa !66
  %98 = load ptr, ptr %5, align 8, !tbaa !41
  %99 = getelementptr inbounds nuw %"struct.(anonymous namespace)::pj_sch_data", ptr %98, i32 0, i32 4
  %100 = getelementptr inbounds [9 x double], ptr %99, i64 0, i64 7
  %101 = load double, ptr %100, align 8, !tbaa !56
  %102 = getelementptr inbounds nuw %struct.PJ_XYZ, ptr %1, i32 0, i32 1
  %103 = load double, ptr %102, align 8, !tbaa !68
  %104 = fmul double %101, %103
  %105 = call double @llvm.fmuladd.f64(double %95, double %97, double %104)
  %106 = load ptr, ptr %5, align 8, !tbaa !41
  %107 = getelementptr inbounds nuw %"struct.(anonymous namespace)::pj_sch_data", ptr %106, i32 0, i32 4
  %108 = getelementptr inbounds [9 x double], ptr %107, i64 0, i64 8
  %109 = load double, ptr %108, align 8, !tbaa !56
  %110 = getelementptr inbounds nuw %struct.PJ_XYZ, ptr %1, i32 0, i32 2
  %111 = load double, ptr %110, align 8, !tbaa !69
  %112 = call double @llvm.fmuladd.f64(double %109, double %111, double %105)
  store double %112, ptr %91, align 8, !tbaa !69
  call void @llvm.memcpy.p0.p0.i64(ptr align 8 %1, ptr align 8 %9, i64 24, i1 false), !tbaa.struct !65
  call void @llvm.lifetime.end.p0(i64 24, ptr %9) #8
  %113 = load ptr, ptr %5, align 8, !tbaa !41
  %114 = getelementptr inbounds nuw %"struct.(anonymous namespace)::pj_sch_data", ptr %113, i32 0, i32 5
  %115 = getelementptr inbounds [3 x double], ptr %114, i64 0, i64 0
  %116 = load double, ptr %115, align 8, !tbaa !56
  %117 = getelementptr inbounds nuw %struct.PJ_XYZ, ptr %1, i32 0, i32 0
  %118 = load double, ptr %117, align 8, !tbaa !66
  %119 = fadd double %118, %116
  store double %119, ptr %117, align 8, !tbaa !66
  %120 = load ptr, ptr %5, align 8, !tbaa !41
  %121 = getelementptr inbounds nuw %"struct.(anonymous namespace)::pj_sch_data", ptr %120, i32 0, i32 5
  %122 = getelementptr inbounds [3 x double], ptr %121, i64 0, i64 1
  %123 = load double, ptr %122, align 8, !tbaa !56
  %124 = getelementptr inbounds nuw %struct.PJ_XYZ, ptr %1, i32 0, i32 1
  %125 = load double, ptr %124, align 8, !tbaa !68
  %126 = fadd double %125, %123
  store double %126, ptr %124, align 8, !tbaa !68
  %127 = load ptr, ptr %5, align 8, !tbaa !41
  %128 = getelementptr inbounds nuw %"struct.(anonymous namespace)::pj_sch_data", ptr %127, i32 0, i32 5
  %129 = getelementptr inbounds [3 x double], ptr %128, i64 0, i64 2
  %130 = load double, ptr %129, align 8, !tbaa !56
  %131 = getelementptr inbounds nuw %struct.PJ_XYZ, ptr %1, i32 0, i32 2
  %132 = load double, ptr %131, align 8, !tbaa !69
  %133 = fadd double %132, %130
  store double %133, ptr %131, align 8, !tbaa !69
  %134 = load ptr, ptr %5, align 8, !tbaa !41
  %135 = getelementptr inbounds nuw %"struct.(anonymous namespace)::pj_sch_data", ptr %134, i32 0, i32 7
  %136 = load ptr, ptr %135, align 8, !tbaa !54
  %137 = getelementptr inbounds nuw %struct.PJconsts, ptr %136, i32 0, i32 16
  %138 = load ptr, ptr %137, align 8, !tbaa !70
  call void @llvm.memcpy.p0.p0.i64(ptr align 8 %10, ptr align 8 %1, i64 24, i1 false), !tbaa.struct !65
  %139 = load ptr, ptr %5, align 8, !tbaa !41
  %140 = getelementptr inbounds nuw %"struct.(anonymous namespace)::pj_sch_data", ptr %139, i32 0, i32 7
  %141 = load ptr, ptr %140, align 8, !tbaa !54
  call void %138(ptr dead_on_unwind writable sret(%struct.PJ_LPZ) align 8 %0, ptr noundef byval(%struct.PJ_XYZ) align 8 %10, ptr noundef %141)
  call void @llvm.lifetime.end.p0(i64 24, ptr %6) #8
  call void @llvm.lifetime.end.p0(i64 8, ptr %5) #8
  ret void
}