; Function Attrs: mustprogress uwtable
define internal void @_ZL13sch_inverse3d6PJ_XYZP8PJconsts(ptr dead_on_unwind noalias writable sret(%struct.PJ_LPZ) align 8 %0, ptr noundef byval(%struct.PJ_XYZ) align 8 captures(none) %1, ptr noundef readonly captures(none) %2) #0 {
  %4 = alloca %struct.PJ_LPZ, align 8
  %5 = getelementptr inbounds nuw i8, ptr %2, i64 88
  %6 = load ptr, ptr %5, align 8, !tbaa !40
  %7 = load double, ptr %1, align 8, !tbaa !57
  %8 = getelementptr inbounds nuw i8, ptr %2, i64 168
  %9 = load double, ptr %8, align 8, !tbaa !53
  %10 = getelementptr inbounds nuw i8, ptr %6, i64 128
  %11 = load double, ptr %10, align 8, !tbaa !54
  %12 = fdiv double %9, %11
  %13 = fmul double %7, %12
  %14 = getelementptr inbounds nuw i8, ptr %1, i64 8
  %15 = load double, ptr %14, align 8, !tbaa !59
  %16 = fmul double %15, %12
  %17 = getelementptr inbounds nuw i8, ptr %1, i64 16
  %18 = load double, ptr %17, align 8, !tbaa !60
  %19 = getelementptr inbounds nuw i8, ptr %6, i64 144
  %20 = load ptr, ptr %19, align 8, !tbaa !50
  %21 = getelementptr inbounds nuw i8, ptr %20, i64 120
  %22 = load ptr, ptr %21, align 8, !tbaa !56
  store double %13, ptr %4, align 8, !tbaa !55
  %.sroa.42.0..sroa_idx = getelementptr inbounds nuw i8, ptr %4, i64 8
  store double %16, ptr %.sroa.42.0..sroa_idx, align 8, !tbaa !55
  %.sroa.53.0..sroa_idx = getelementptr inbounds nuw i8, ptr %4, i64 16
  store double %18, ptr %.sroa.53.0..sroa_idx, align 8, !tbaa !55
  call void %22(ptr dead_on_unwind nonnull writable sret(%struct.PJ_XYZ) align 8 %1, ptr noundef nonnull byval(%struct.PJ_LPZ) align 8 %4, ptr noundef %20)
  %23 = getelementptr inbounds nuw i8, ptr %6, i64 32
  %24 = load double, ptr %23, align 8, !tbaa !55
  %25 = load double, ptr %1, align 8, !tbaa !57
  %26 = getelementptr inbounds nuw i8, ptr %6, i64 40
  %27 = load double, ptr %26, align 8, !tbaa !55
  %28 = load double, ptr %14, align 8, !tbaa !59
  %29 = fmul double %27, %28
  %30 = call double @llvm.fmuladd.f64(double %24, double %25, double %29)
  %31 = getelementptr inbounds nuw i8, ptr %6, i64 48
  %32 = load double, ptr %31, align 8, !tbaa !55
  %33 = load double, ptr %17, align 8, !tbaa !60
  %34 = call double @llvm.fmuladd.f64(double %32, double %33, double %30)
  %35 = getelementptr inbounds nuw i8, ptr %6, i64 56
  %36 = load double, ptr %35, align 8, !tbaa !55
  %37 = getelementptr inbounds nuw i8, ptr %6, i64 64
  %38 = load double, ptr %37, align 8, !tbaa !55
  %39 = fmul double %28, %38
  %40 = call double @llvm.fmuladd.f64(double %36, double %25, double %39)
  %41 = getelementptr inbounds nuw i8, ptr %6, i64 72
  %42 = load double, ptr %41, align 8, !tbaa !55
  %43 = call double @llvm.fmuladd.f64(double %42, double %33, double %40)
  %44 = getelementptr inbounds nuw i8, ptr %6, i64 80
  %45 = load double, ptr %44, align 8, !tbaa !55
  %46 = getelementptr inbounds nuw i8, ptr %6, i64 88
  %47 = load double, ptr %46, align 8, !tbaa !55
  %48 = fmul double %28, %47
  %49 = call double @llvm.fmuladd.f64(double %45, double %25, double %48)
  %50 = getelementptr inbounds nuw i8, ptr %6, i64 96
  %51 = load double, ptr %50, align 8, !tbaa !55
  %52 = call double @llvm.fmuladd.f64(double %51, double %33, double %49)
  %53 = getelementptr inbounds nuw i8, ptr %6, i64 104
  %54 = load double, ptr %53, align 8, !tbaa !55
  %55 = fadd double %34, %54
  store double %55, ptr %1, align 8, !tbaa !57
  %56 = getelementptr inbounds nuw i8, ptr %6, i64 112
  %57 = load double, ptr %56, align 8, !tbaa !55
  %58 = fadd double %43, %57
  store double %58, ptr %14, align 8, !tbaa !59
  %59 = getelementptr inbounds nuw i8, ptr %6, i64 120
  %60 = load double, ptr %59, align 8, !tbaa !55
  %61 = fadd double %52, %60
  store double %61, ptr %17, align 8, !tbaa !60
  %62 = getelementptr inbounds nuw i8, ptr %6, i64 136
  %63 = load ptr, ptr %62, align 8, !tbaa !49
  %64 = getelementptr inbounds nuw i8, ptr %63, i64 128
  %65 = load ptr, ptr %64, align 8, !tbaa !61
  call void %65(ptr dead_on_unwind writable sret(%struct.PJ_LPZ) align 8 %0, ptr noundef nonnull byval(%struct.PJ_XYZ) align 8 %1, ptr noundef %63)
  ret void
}